target datalayout = "e-m:e-p270:32:32-p271:32:32-p272:64:64-i64:64-i128:128-f80:128-n8:16:32:64-S128"
target triple = "x86_64-pc-linux-gnu"

; Function Attrs: mustprogress nounwind uwtable
define linkonce_odr noundef float @_Zli5_reale(x86_fp80 noundef %0) #4 comdat {
  %2 = alloca x86_fp80, align 16
  store x86_fp80 %0, ptr %2, align 16, !tbaa !19
  %3 = load x86_fp80, ptr %2, align 16, !tbaa !19
  %4 = fptrunc x86_fp80 %3 to float
  ret float %4
}

; Function Attrs: inlinehint mustprogress nounwind uwtable
define internal void @_ZL8rvec_incPfPKf(ptr noundef %0, ptr noundef %1) #3 {
  %3 = alloca ptr, align 8
  %4 = alloca ptr, align 8
  %5 = alloca float, align 4
  %6 = alloca float, align 4
  %7 = alloca float, align 4
  store ptr %0, ptr %3, align 8, !tbaa !9
  store ptr %1, ptr %4, align 8, !tbaa !9
  call void @llvm.lifetime.start.p0(i64 4, ptr %5) #8
  call void @llvm.lifetime.start.p0(i64 4, ptr %6) #8
  call void @llvm.lifetime.start.p0(i64 4, ptr %7) #8
  %8 = load ptr, ptr %3, align 8, !tbaa !9
  %9 = getelementptr inbounds float, ptr %8, i64 0
  %10 = load float, ptr %9, align 4, !tbaa !17
  %11 = load ptr, ptr %4, align 8, !tbaa !9
  %12 = getelementptr inbounds float, ptr %11, i64 0
  %13 = load float, ptr %12, align 4, !tbaa !17
  %14 = fadd float %10, %13
  store float %14, ptr %5, align 4, !tbaa !17
  %15 = load ptr, ptr %3, align 8, !tbaa !9
  %16 = getelementptr inbounds float, ptr %15, i64 1
  %17 = load float, ptr %16, align 4, !tbaa !17
  %18 = load ptr, ptr %4, align 8, !tbaa !9
  %19 = getelementptr inbounds float, ptr %18, i64 1
  %20 = load float, ptr %19, align 4, !tbaa !17
  %21 = fadd float %17, %20
  store float %21, ptr %6, align 4, !tbaa !17
  %22 = load ptr, ptr %3, align 8, !tbaa !9
  %23 = getelementptr inbounds float, ptr %22, i64 2
  %24 = load float, ptr %23, align 4, !tbaa !17
  %25 = load ptr, ptr %4, align 8, !tbaa !9
  %26 = getelementptr inbounds float, ptr %25, i64 2
  %27 = load float, ptr %26, align 4, !tbaa !17
  %28 = fadd float %24, %27
  store float %28, ptr %7, align 4, !tbaa !17
  %29 = load float, ptr %5, align 4, !tbaa !17
  %30 = load ptr, ptr %3, align 8, !tbaa !9
  %31 = getelementptr inbounds float, ptr %30, i64 0
  store float %29, ptr %31, align 4, !tbaa !17
  %32 = load float, ptr %6, align 4, !tbaa !17
  %33 = load ptr, ptr %3, align 8, !tbaa !9
  %34 = getelementptr inbounds float, ptr %33, i64 1
  store float %32, ptr %34, align 4, !tbaa !17
  %35 = load float, ptr %7, align 4, !tbaa !17
  %36 = load ptr, ptr %3, align 8, !tbaa !9
  %37 = getelementptr inbounds float, ptr %36, i64 2
  store float %35, ptr %37, align 4, !tbaa !17
  call void @llvm.lifetime.end.p0(i64 4, ptr %7) #8
  call void @llvm.lifetime.end.p0(i64 4, ptr %6) #8
  call void @llvm.lifetime.end.p0(i64 4, ptr %5) #8
  ret void
}

; Function Attrs: inlinehint mustprogress uwtable
define internal void @_ZL10clear_rvecPf(ptr noundef %0) #2 {
  %2 = alloca ptr, align 8
  store ptr %0, ptr %2, align 8, !tbaa !9
  %3 = call noundef float @_Zli5_reale(x86_fp80 noundef 0xK00000000000000000000)
  %4 = load ptr, ptr %2, align 8, !tbaa !9
  %5 = getelementptr inbounds float, ptr %4, i64 0
  store float %3, ptr %5, align 4, !tbaa !17
  %6 = call noundef float @_Zli5_reale(x86_fp80 noundef 0xK00000000000000000000)
  %7 = load ptr, ptr %2, align 8, !tbaa !9
  %8 = getelementptr inbounds float, ptr %7, i64 1
  store float %6, ptr %8, align 4, !tbaa !17
  %9 = call noundef float @_Zli5_reale(x86_fp80 noundef 0xK00000000000000000000)
  %10 = load ptr, ptr %2, align 8, !tbaa !9
  %11 = getelementptr inbounds float, ptr %10, i64 2
  store float %9, ptr %11, align 4, !tbaa !17
  ret void
}

; Function Attrs: mustprogress uwtable
define void @_Z14gmx_calc_com_fPK10gmx_mtop_tPA3_fiPKiPf(ptr noundef %0, ptr noundef %1, i32 noundef %2, ptr noundef %3, ptr noundef %4) #0 {
  %6 = alloca ptr, align 8
  %7 = alloca ptr, align 8
  %8 = alloca i32, align 4
  %9 = alloca ptr, align 8
  %10 = alloca ptr, align 8
  %11 = alloca i32, align 4
  %12 = alloca i32, align 4
  store ptr %0, ptr %6, align 8, !tbaa !4
  store ptr %1, ptr %7, align 8, !tbaa !9
  store i32 %2, ptr %8, align 4, !tbaa !11
  store ptr %3, ptr %9, align 8, !tbaa !13
  store ptr %4, ptr %10, align 8, !tbaa !9
  %13 = load ptr, ptr %10, align 8, !tbaa !9
  call void @_ZL10clear_rvecPf(ptr noundef %13)
  call void @llvm.lifetime.start.p0(i64 4, ptr %11) #8
  store i32 0, ptr %11, align 4, !tbaa !11
  br label %14

14:                                               ; preds = %31, %5
  %15 = load i32, ptr %11, align 4, !tbaa !11
  %16 = load i32, ptr %8, align 4, !tbaa !11
  %17 = icmp slt i32 %15, %16
  br i1 %17, label %19, label %18

18:                                               ; preds = %14
  call void @llvm.lifetime.end.p0(i64 4, ptr %11) #8
  br label %34

19:                                               ; preds = %14
  call void @llvm.lifetime.start.p0(i64 4, ptr %12) #8
  %20 = load ptr, ptr %9, align 8, !tbaa !13
  %21 = load i32, ptr %11, align 4, !tbaa !11
  %22 = sext i32 %21 to i64
  %23 = getelementptr inbounds i32, ptr %20, i64 %22
  %24 = load i32, ptr %23, align 4, !tbaa !11
  store i32 %24, ptr %12, align 4, !tbaa !11
  %25 = load ptr, ptr %10, align 8, !tbaa !9
  %26 = load ptr, ptr %7, align 8, !tbaa !9
  %27 = load i32, ptr %12, align 4, !tbaa !11
  %28 = sext i32 %27 to i64
  %29 = getelementptr inbounds [3 x float], ptr %26, i64 %28
  %30 = getelementptr inbounds [3 x float], ptr %29, i64 0, i64 0
  call void @_ZL8rvec_incPfPKf(ptr noundef %25, ptr noundef %30)
  call void @llvm.lifetime.end.p0(i64 4, ptr %12) #8
  br label %31

31:                                               ; preds = %19
  %32 = load i32, ptr %11, align 4, !tbaa !11
  %33 = add nsw i32 %32, 1
  store i32 %33, ptr %11, align 4, !tbaa !11
  br label %14, !llvm.loop !79

34:                                               ; preds = %18
  ret void
}